; Function Attrs: mustprogress nofree norecurse nosync nounwind willreturn memory(read, inaccessiblemem: none) uwtable
define noundef i32 @_ZNK6icu_7510UnicodeSet8hashCodeEv(ptr nocapture noundef nonnull readonly align 8 dereferenceable(200) %this) unnamed_addr #9 align 2 {
entry:
  %len = getelementptr inbounds i8, ptr %this, i64 28
  %0 = load i32, ptr %len, align 4
  %cmp5 = icmp sgt i32 %0, 0
  br i1 %cmp5, label %for.body.lr.ph, label %for.end

for.body.lr.ph:                                   ; preds = %entry
  %list = getelementptr inbounds i8, ptr %this, i64 16
  %1 = load ptr, ptr %list, align 8
  %wide.trip.count = zext nneg i32 %0 to i64
  br label %for.body

for.body:                                         ; preds = %for.body.lr.ph, %for.body
  %indvars.iv = phi i64 [ 0, %for.body.lr.ph ], [ %indvars.iv.next, %for.body ]
  %result.06 = phi i32 [ %0, %for.body.lr.ph ], [ %add, %for.body ]
  %mul = mul i32 %result.06, 1000003
  %arrayidx = getelementptr inbounds i32, ptr %1, i64 %indvars.iv
  %2 = load i32, ptr %arrayidx, align 4
  %add = add i32 %2, %mul
  %indvars.iv.next = add nuw nsw i64 %indvars.iv, 1
  %exitcond.not = icmp eq i64 %indvars.iv.next, %wide.trip.count
  br i1 %exitcond.not, label %for.end, label %for.body, !llvm.loop !7

for.end:                                          ; preds = %for.body, %entry
  %result.0.lcssa = phi i32 [ %0, %entry ], [ %add, %for.body ]
  ret i32 %result.0.lcssa
}